target datalayout = "e-m:e-p270:32:32-p271:32:32-p272:64:64-i64:64-i128:128-f80:128-n8:16:32:64-S128"
target triple = "x86_64-unknown-linux-gnu"

%class.rational = type { %class.mpq }
%class.mpq = type { %class.mpz, %class.mpz }
%class.mpz = type { i32, i8, ptr }
%"struct.nla::common" = type { ptr, %"class.nla::nex_creator" }
%"class.nla::nex_creator" = type { %class.ptr_vector, %"class.std::unordered_map", %"class.std::unordered_map.2", %class.svector, %"class.nla::nex_creator::mul_factory" }
%class.ptr_vector = type { %class.vector }
%class.vector = type { ptr }
%"class.std::unordered_map" = type { %"class.std::_Hashtable" }
%"class.std::_Hashtable" = type { ptr, i64, %"struct.std::__detail::_Hash_node_base", i64, %"struct.std::__detail::_Prime_rehash_policy", ptr }
%"struct.std::__detail::_Hash_node_base" = type { ptr }
%"struct.std::__detail::_Prime_rehash_policy" = type { float, i64 }
%"class.std::unordered_map.2" = type { %"class.std::_Hashtable.3" }
%"class.std::_Hashtable.3" = type { ptr, i64, %"struct.std::__detail::_Hash_node_base", i64, %"struct.std::__detail::_Prime_rehash_policy", ptr }
%class.svector = type { %class.vector.16 }
%class.vector.16 = type { ptr }
%"class.nla::nex_creator::mul_factory" = type { ptr, %class.rational, %class.vector.17 }
%class.vector.17 = type { ptr }

; Function Attrs: mustprogress nounwind uwtable
define linkonce_odr hidden noundef nonnull align 8 dereferenceable(4720) ptr @_ZNK3nla6common1cEv(ptr noundef nonnull align 8 dereferenceable(184) %this) #4 comdat align 2 {
entry:
  %this.addr = alloca ptr, align 8
  store ptr %this, ptr %this.addr, align 8
  %this1 = load ptr, ptr %this.addr, align 8
  %m_core = getelementptr inbounds %"struct.nla::common", ptr %this1, i32 0, i32 0
  %0 = load ptr, ptr %m_core, align 8
  ret ptr %0
}

; Function Attrs: mustprogress uwtable
define hidden noundef zeroext i1 @_ZNK3nla15monomial_bounds7is_freeEj(ptr noundef nonnull align 8 dereferenceable(192) %this, i32 noundef %v) #5 align 2 {
entry:
  %this.addr = alloca ptr, align 8
  %v.addr = alloca i32, align 4
  store ptr %this, ptr %this.addr, align 8
  store i32 %v, ptr %v.addr, align 4
  %this1 = load ptr, ptr %this.addr, align 8
  %call = call noundef nonnull align 8 dereferenceable(4720) ptr @_ZNK3nla6common1cEv(ptr noundef nonnull align 8 dereferenceable(184) %this1)
  %0 = load i32, ptr %v.addr, align 4
  %call2 = call noundef zeroext i1 @_ZNK3nla4core15has_lower_boundEj(ptr noundef nonnull align 8 dereferenceable(4720) %call, i32 noundef %0)
  br i1 %call2, label %land.end, label %land.rhs

land.rhs:                                         ; preds = %entry
  %call3 = call noundef nonnull align 8 dereferenceable(4720) ptr @_ZNK3nla6common1cEv(ptr noundef nonnull align 8 dereferenceable(184) %this1)
  %1 = load i32, ptr %v.addr, align 4
  %call4 = call noundef zeroext i1 @_ZNK3nla4core15has_upper_boundEj(ptr noundef nonnull align 8 dereferenceable(4720) %call3, i32 noundef %1)
  %lnot = xor i1 %call4, true
  br label %land.end

land.end:                                         ; preds = %land.rhs, %entry
  %2 = phi i1 [ false, %entry ], [ %lnot, %land.rhs ]
  ret i1 %2
}