; Function Attrs: mustprogress uwtable
define hidden noundef zeroext i1 @_ZNK3nla15monomial_bounds7is_freeEj(ptr nocapture noundef nonnull readonly align 8 dereferenceable(192) %this, i32 noundef %v) local_unnamed_addr #3 align 2 {
entry:
  %0 = load ptr, ptr %this, align 8
  %call2 = tail call noundef zeroext i1 @_ZNK3nla4core15has_lower_boundEj(ptr noundef nonnull align 8 dereferenceable(4720) %0, i32 noundef %v)
  br i1 %call2, label %land.end, label %land.rhs

land.rhs:                                         ; preds = %entry
  %1 = load ptr, ptr %this, align 8
  %call4 = tail call noundef zeroext i1 @_ZNK3nla4core15has_upper_boundEj(ptr noundef nonnull align 8 dereferenceable(4720) %1, i32 noundef %v)
  %lnot = xor i1 %call4, true
  br label %land.end

land.end:                                         ; preds = %land.rhs, %entry
  %2 = phi i1 [ false, %entry ], [ %lnot, %land.rhs ]
  ret i1 %2
}